target datalayout = "e-m:e-p270:32:32-p271:32:32-p272:64:64-i64:64-i128:128-f80:128-n8:16:32:64-S128"
target triple = "x86_64-unknown-linux-gnu"

%struct.riscv_aclint_mtimer_callback = type { ptr, i32 }
%struct.RISCVAclintMTimerState = type { %struct.SysBusDevice, i64, ptr, ptr, %struct.MemoryRegion, i32, i32, i32, i32, i32, i32, ptr }
%struct.SysBusDevice = type { %struct.DeviceState, i32, [32 x %struct.anon], i32, [32 x i32] }
%struct.DeviceState = type { %struct.Object, ptr, ptr, i8, i8, i64, ptr, i32, i8, ptr, %struct.NamedGPIOListHead, %struct.NamedClockListHead, %struct.BusStateHead, i32, i32, i32, %struct.ResettableState, ptr, %struct.MemReentrancyGuard }
%struct.Object = type { ptr, ptr, ptr, i32, ptr }
%struct.NamedGPIOListHead = type { ptr }
%struct.NamedClockListHead = type { ptr }
%struct.BusStateHead = type { ptr }
%struct.ResettableState = type { i32, i8, i8 }
%struct.MemReentrancyGuard = type { i8 }
%struct.anon = type { i64, ptr }
%struct.MemoryRegion = type { %struct.Object, i8, i8, i8, i8, i8, i8, i8, i8, i8, i8, ptr, ptr, ptr, ptr, ptr, ptr, i32, i128, i64, ptr, i64, i8, i8, i8, i8, i8, ptr, i64, i32, %union.anon, %union.anon.0, %union.anon.1, ptr, i32, ptr, ptr, i8 }
%union.anon = type { %struct.QTailQLink }
%struct.QTailQLink = type { ptr, ptr }
%union.anon.0 = type { %struct.QTailQLink }
%union.anon.1 = type { %struct.QTailQLink }

; Function Attrs: nounwind sspstrong uwtable
define internal void @qemu_irq_raise(ptr noundef %irq) #0 {
entry:
  %irq.addr = alloca ptr, align 8
  store ptr %irq, ptr %irq.addr, align 8
  %0 = load ptr, ptr %irq.addr, align 8
  call void @qemu_set_irq(ptr noundef %0, i32 noundef 1)
  ret void
}

; Function Attrs: nounwind sspstrong uwtable
define internal void @riscv_aclint_mtimer_cb(ptr noundef %opaque) #0 {
entry:
  %opaque.addr = alloca ptr, align 8
  %state = alloca ptr, align 8
  store ptr %opaque, ptr %opaque.addr, align 8
  %0 = load ptr, ptr %opaque.addr, align 8
  store ptr %0, ptr %state, align 8
  %1 = load ptr, ptr %state, align 8
  %s = getelementptr inbounds %struct.riscv_aclint_mtimer_callback, ptr %1, i32 0, i32 0
  %2 = load ptr, ptr %s, align 8
  %timer_irqs = getelementptr inbounds %struct.RISCVAclintMTimerState, ptr %2, i32 0, i32 11
  %3 = load ptr, ptr %timer_irqs, align 8
  %4 = load ptr, ptr %state, align 8
  %num = getelementptr inbounds %struct.riscv_aclint_mtimer_callback, ptr %4, i32 0, i32 1
  %5 = load i32, ptr %num, align 8
  %idxprom = sext i32 %5 to i64
  %arrayidx = getelementptr ptr, ptr %3, i64 %idxprom
  %6 = load ptr, ptr %arrayidx, align 8
  call void @qemu_irq_raise(ptr noundef %6)
  ret void
}