; Function Attrs: nounwind sspstrong uwtable
define internal void @riscv_aclint_mtimer_cb(ptr noundef readonly captures(none) %opaque) #0 {
entry:
  %0 = load ptr, ptr %opaque, align 8
  %timer_irqs = getelementptr inbounds nuw i8, ptr %0, i64 1144
  %1 = load ptr, ptr %timer_irqs, align 8
  %num = getelementptr inbounds nuw i8, ptr %opaque, i64 8
  %2 = load i32, ptr %num, align 8
  %idxprom = sext i32 %2 to i64
  %arrayidx = getelementptr ptr, ptr %1, i64 %idxprom
  %3 = load ptr, ptr %arrayidx, align 8
  tail call void @qemu_set_irq(ptr noundef %3, i32 noundef 1) #6
  ret void
}